target datalayout = "e-m:e-p270:32:32-p271:32:32-p272:64:64-i64:64-i128:128-f80:128-n8:16:32:64-S128"
target triple = "x86_64-pc-linux-gnu"

%struct.redisServer = type { i32, i64, ptr, ptr, ptr, i32, i32, i32, i32, i32, ptr, ptr, ptr, ptr, ptr, i32, i32, i32, i32, i64, i32, i32, i32, i32, ptr, i32, i32, [41 x i8], i32, i64, i32, i32, i32, ptr, ptr, i32, i32, i64, ptr, ptr, ptr, ptr, [2 x i32], i32, i32, i32, i32, i32, i32, [16 x ptr], i32, ptr, ptr, i32, [8 x %struct.connListener], i32, %struct.connListener, ptr, ptr, ptr, ptr, ptr, ptr, ptr, ptr, ptr, ptr, i32, ptr, i32, ptr, [3 x %struct.pause_event], [256 x i8], ptr, i64, i32, i32, [128 x i32], i32, i32, i64, i32, i32, i32, i32, i32, i64, i64, i64, i64, i64, i64, i64, i64, i64, i64, double, i64, i64, i64, i64, i64, i64, i64, i64, i64, i64, i64, i64, i64, i64, i64, i64, i64, i64, i64, i64, i64, double, i64, i64, i64, i64, i64, ptr, i64, i64, i64, %struct.malloc_stats, i64, i64, i64, i64, i64, i64, i64, i64, i64, i64, i64, i64, double, [4 x i64], i64, i64, i64, i64, [128 x i64], [128 x i64], i64, i64, [7 x %struct.anon], i64, i64, i64, i64, i64, i64, [4 x %struct.durationStats], i32, i32, i32, i32, i32, i32, i32, i32, i32, i32, i32, i32, i64, i32, i32, i32, i32, i64, i64, i32, i32, i32, i32, i32, ptr, [3 x %struct.clientBufferLimitsConfig], i32, i32, i32, ptr, i32, i32, i32, i32, i32, i32, ptr, ptr, i32, i32, i64, i64, i64, i64, i64, i32, i32, ptr, i32, i32, i64, i64, i64, i64, i64, i32, i32, i64, i32, i32, i32, i32, i32, i32, i32, i32, ptr, i32, i64, i64, i64, i64, i32, ptr, i32, ptr, i32, i32, i32, i64, i64, i64, i64, i32, i32, i32, i32, i32, i32, ptr, i32, i32, ptr, i32, i32, i32, [2 x i32], i32, %struct.redisOpArray, i32, ptr, i32, ptr, i32, i32, i32, i32, i32, i32, i32, [41 x i8], [41 x i8], i64, i64, i64, i64, i32, i32, ptr, i64, i64, %struct.replDataBuf, i64, i64, i32, i32, i32, i32, i32, i32, i32, i32, i32, i64, ptr, i64, ptr, ptr, ptr, i32, i32, ptr, ptr, i32, i32, i32, i64, i64, i64, i64, ptr, ptr, i32, ptr, i64, i32, i32, i32, i64, i32, i32, i32, i32, ptr, i32, i32, [41 x i8], i64, i32, ptr, i32, i32, i64, i64, i32, i32, i32, i32, i32, i64, [3 x i32], i32, i32, i32, [10 x i32], ptr, ptr, i32, i64, ptr, ptr, i32, i32, i32, i32, i64, i64, i64, i64, i64, i64, i64, i64, i64, i64, i32, i32, i64, i64, i32, i64, i64, i64, i64, i64, ptr, ptr, i32, ptr, i32, i32, i32, i32, i64, i64, ptr, ptr, i32, i32, i32, i32, i32, ptr, ptr, ptr, i32, i32, i32, i32, i32, i32, i32, i64, i32, i32, i64, i32, i32, i32, i32, i32, i32, i32, i64, ptr, ptr, i64, ptr, i32, %struct.aclInfo, i32, i64, i32, i32, i32, %struct.redisTLSContextConfig, ptr, ptr, ptr, ptr, ptr, i64, i32, ptr, i32, i32, i32, i64, i32, ptr }
%struct.connListener = type { [16 x i32], i32, ptr, i32, i32, ptr, ptr }
%struct.pause_event = type { i32, i64 }
%struct.malloc_stats = type { i64, i64, i64, i64, i64, i64, i64, i64, i64, i64, i64 }
%struct.anon = type { i64, i64, [16 x i64], i32 }
%struct.durationStats = type { i64, i64, i64 }
%struct.clientBufferLimitsConfig = type { i64, i64, i64 }
%struct.redisOpArray = type { ptr, i32, i32 }
%struct.replDataBuf = type { ptr, i64, i64, i64, i64 }
%struct.aclInfo = type { i64, i64, i64, i64 }
%struct.redisTLSContextConfig = type { ptr, ptr, ptr, ptr, ptr, ptr, ptr, ptr, ptr, ptr, ptr, ptr, i32, i32, i32, i32 }
%struct.aofInfo = type { ptr, i64, i32, i64, i64 }
%struct.aofManifest = type { ptr, ptr, ptr, i64, i64, i32 }
%struct.list = type { ptr, ptr, ptr, ptr, ptr, i64 }

@.str = private unnamed_addr constant [11 x i8] c"ai != NULL\00", align 1
@.str.1 = private unnamed_addr constant [6 x i8] c"aof.c\00", align 1
@.str.11 = private unnamed_addr constant [5 x i8] c"%s%s\00", align 1
@server = external global %struct.redisServer, align 8
@.str.12 = private unnamed_addr constant [10 x i8] c".manifest\00", align 1
@.str.15 = private unnamed_addr constant [11 x i8] c"am != NULL\00", align 1
@.str.16 = private unnamed_addr constant [35 x i8] c"The AOF directory %s doesn't exist\00", align 1
@.str.17 = private unnamed_addr constant [39 x i8] c"The AOF manifest file %s doesn't exist\00", align 1

; Function Attrs: nounwind uwtable
define dso_local void @aofInfoFree(ptr noundef %0) #0 {
  %2 = alloca ptr, align 8
  store ptr %0, ptr %2, align 8, !tbaa !5
  %3 = load ptr, ptr %2, align 8, !tbaa !5
  %4 = icmp ne ptr %3, null
  %5 = xor i1 %4, true
  %6 = xor i1 %5, true
  %7 = zext i1 %6 to i32
  %8 = sext i32 %7 to i64
  %9 = call i64 @llvm.expect.i64(i64 %8, i64 1)
  %10 = icmp ne i64 %9, 0
  br i1 %10, label %11, label %12

11:                                               ; preds = %1
  br label %14

12:                                               ; preds = %1
  call void @_serverAssert(ptr noundef @.str, ptr noundef @.str.1, i32 noundef 96)
  call void @abort() #14
  unreachable

13:                                               ; No predecessors!
  br label %14

14:                                               ; preds = %13, %11
  %15 = load ptr, ptr %2, align 8, !tbaa !5
  %16 = getelementptr inbounds nuw %struct.aofInfo, ptr %15, i32 0, i32 0
  %17 = load ptr, ptr %16, align 8, !tbaa !15
  %18 = icmp ne ptr %17, null
  br i1 %18, label %19, label %23

19:                                               ; preds = %14
  %20 = load ptr, ptr %2, align 8, !tbaa !5
  %21 = getelementptr inbounds nuw %struct.aofInfo, ptr %20, i32 0, i32 0
  %22 = load ptr, ptr %21, align 8, !tbaa !15
  call void @sdsfree(ptr noundef %22)
  br label %23

23:                                               ; preds = %19, %14
  %24 = load ptr, ptr %2, align 8, !tbaa !5
  call void @zfree(ptr noundef %24)
  ret void
}

; Function Attrs: nounwind uwtable
define dso_local void @aofManifestFree(ptr noundef %0) #0 {
  %2 = alloca ptr, align 8
  store ptr %0, ptr %2, align 8, !tbaa !5
  %3 = load ptr, ptr %2, align 8, !tbaa !5
  %4 = getelementptr inbounds nuw %struct.aofManifest, ptr %3, i32 0, i32 0
  %5 = load ptr, ptr %4, align 8, !tbaa !33
  %6 = icmp ne ptr %5, null
  br i1 %6, label %7, label %11

7:                                                ; preds = %1
  %8 = load ptr, ptr %2, align 8, !tbaa !5
  %9 = getelementptr inbounds nuw %struct.aofManifest, ptr %8, i32 0, i32 0
  %10 = load ptr, ptr %9, align 8, !tbaa !33
  call void @aofInfoFree(ptr noundef %10)
  br label %11

11:                                               ; preds = %7, %1
  %12 = load ptr, ptr %2, align 8, !tbaa !5
  %13 = getelementptr inbounds nuw %struct.aofManifest, ptr %12, i32 0, i32 1
  %14 = load ptr, ptr %13, align 8, !tbaa !25
  %15 = icmp ne ptr %14, null
  br i1 %15, label %16, label %20

16:                                               ; preds = %11
  %17 = load ptr, ptr %2, align 8, !tbaa !5
  %18 = getelementptr inbounds nuw %struct.aofManifest, ptr %17, i32 0, i32 1
  %19 = load ptr, ptr %18, align 8, !tbaa !25
  call void @listRelease(ptr noundef %19)
  br label %20

20:                                               ; preds = %16, %11
  %21 = load ptr, ptr %2, align 8, !tbaa !5
  %22 = getelementptr inbounds nuw %struct.aofManifest, ptr %21, i32 0, i32 2
  %23 = load ptr, ptr %22, align 8, !tbaa !28
  %24 = icmp ne ptr %23, null
  br i1 %24, label %25, label %29

25:                                               ; preds = %20
  %26 = load ptr, ptr %2, align 8, !tbaa !5
  %27 = getelementptr inbounds nuw %struct.aofManifest, ptr %26, i32 0, i32 2
  %28 = load ptr, ptr %27, align 8, !tbaa !28
  call void @listRelease(ptr noundef %28)
  br label %29

29:                                               ; preds = %25, %20
  %30 = load ptr, ptr %2, align 8, !tbaa !5
  call void @zfree(ptr noundef %30)
  ret void
}

; Function Attrs: nounwind uwtable
define dso_local void @aofManifestFreeAndUpdate(ptr noundef %0) #0 {
  %2 = alloca ptr, align 8
  store ptr %0, ptr %2, align 8, !tbaa !5
  %3 = load ptr, ptr %2, align 8, !tbaa !5
  %4 = icmp ne ptr %3, null
  %5 = xor i1 %4, true
  %6 = xor i1 %5, true
  %7 = zext i1 %6 to i32
  %8 = sext i32 %7 to i64
  %9 = call i64 @llvm.expect.i64(i64 %8, i64 1)
  %10 = icmp ne i64 %9, 0
  br i1 %10, label %11, label %12

11:                                               ; preds = %1
  br label %14

12:                                               ; preds = %1
  call void @_serverAssert(ptr noundef @.str.15, ptr noundef @.str.1, i32 noundef 421)
  call void @abort() #14
  unreachable

13:                                               ; No predecessors!
  br label %14

14:                                               ; preds = %13, %11
  %15 = load ptr, ptr getelementptr inbounds nuw (%struct.redisServer, ptr @server, i32 0, i32 225), align 8, !tbaa !65
  %16 = icmp ne ptr %15, null
  br i1 %16, label %17, label %19

17:                                               ; preds = %14
  %18 = load ptr, ptr getelementptr inbounds nuw (%struct.redisServer, ptr @server, i32 0, i32 225), align 8, !tbaa !65
  call void @aofManifestFree(ptr noundef %18)
  br label %19

19:                                               ; preds = %17, %14
  %20 = load ptr, ptr %2, align 8, !tbaa !5
  store ptr %20, ptr getelementptr inbounds nuw (%struct.redisServer, ptr @server, i32 0, i32 225), align 8, !tbaa !65
  ret void
}

; Function Attrs: nounwind uwtable
define dso_local ptr @getAofManifestFileName() #0 {
  %1 = call ptr @sdsempty()
  %2 = load ptr, ptr getelementptr inbounds nuw (%struct.redisServer, ptr @server, i32 0, i32 195), align 8, !tbaa !34
  %3 = call ptr (ptr, ptr, ...) @sdscatprintf(ptr noundef %1, ptr noundef @.str.11, ptr noundef %2, ptr noundef @.str.12)
  ret ptr %3
}

; Function Attrs: nounwind uwtable
define dso_local ptr @aofManifestCreate() #0 {
  %1 = alloca ptr, align 8
  call void @llvm.lifetime.start.p0(i64 8, ptr %1) #12
  %2 = call noalias ptr @zcalloc(i64 noundef 48) #13
  store ptr %2, ptr %1, align 8, !tbaa !5
  %3 = call ptr @listCreate()
  %4 = load ptr, ptr %1, align 8, !tbaa !5
  %5 = getelementptr inbounds nuw %struct.aofManifest, ptr %4, i32 0, i32 1
  store ptr %3, ptr %5, align 8, !tbaa !25
  %6 = call ptr @listCreate()
  %7 = load ptr, ptr %1, align 8, !tbaa !5
  %8 = getelementptr inbounds nuw %struct.aofManifest, ptr %7, i32 0, i32 2
  store ptr %6, ptr %8, align 8, !tbaa !28
  %9 = load ptr, ptr %1, align 8, !tbaa !5
  %10 = getelementptr inbounds nuw %struct.aofManifest, ptr %9, i32 0, i32 1
  %11 = load ptr, ptr %10, align 8, !tbaa !25
  %12 = getelementptr inbounds nuw %struct.list, ptr %11, i32 0, i32 3
  store ptr @aofListFree, ptr %12, align 8, !tbaa !29
  %13 = load ptr, ptr %1, align 8, !tbaa !5
  %14 = getelementptr inbounds nuw %struct.aofManifest, ptr %13, i32 0, i32 1
  %15 = load ptr, ptr %14, align 8, !tbaa !25
  %16 = getelementptr inbounds nuw %struct.list, ptr %15, i32 0, i32 2
  store ptr @aofListDup, ptr %16, align 8, !tbaa !32
  %17 = load ptr, ptr %1, align 8, !tbaa !5
  %18 = getelementptr inbounds nuw %struct.aofManifest, ptr %17, i32 0, i32 2
  %19 = load ptr, ptr %18, align 8, !tbaa !28
  %20 = getelementptr inbounds nuw %struct.list, ptr %19, i32 0, i32 3
  store ptr @aofListFree, ptr %20, align 8, !tbaa !29
  %21 = load ptr, ptr %1, align 8, !tbaa !5
  %22 = getelementptr inbounds nuw %struct.aofManifest, ptr %21, i32 0, i32 2
  %23 = load ptr, ptr %22, align 8, !tbaa !28
  %24 = getelementptr inbounds nuw %struct.list, ptr %23, i32 0, i32 2
  store ptr @aofListDup, ptr %24, align 8, !tbaa !32
  %25 = load ptr, ptr %1, align 8, !tbaa !5
  call void @llvm.lifetime.end.p0(i64 8, ptr %1) #12
  ret ptr %25
}

; Function Attrs: nounwind uwtable
define dso_local void @aofLoadManifestFromDisk() #0 {
  %1 = alloca ptr, align 8
  %2 = alloca ptr, align 8
  %3 = alloca i32, align 4
  %4 = alloca ptr, align 8
  %5 = call ptr @aofManifestCreate()
  store ptr %5, ptr getelementptr inbounds nuw (%struct.redisServer, ptr @server, i32 0, i32 225), align 8, !tbaa !65
  %6 = load ptr, ptr getelementptr inbounds nuw (%struct.redisServer, ptr @server, i32 0, i32 196), align 8, !tbaa !66
  %7 = call i32 @dirExists(ptr noundef %6)
  %8 = icmp ne i32 %7, 0
  br i1 %8, label %17, label %9

9:                                                ; preds = %0
  br label %10

10:                                               ; preds = %9
  %11 = load i32, ptr getelementptr inbounds nuw (%struct.redisServer, ptr @server, i32 0, i32 159), align 8, !tbaa !67
  %12 = icmp slt i32 0, %11
  br i1 %12, label %13, label %14

13:                                               ; preds = %10
  br label %16

14:                                               ; preds = %10
  %15 = load ptr, ptr getelementptr inbounds nuw (%struct.redisServer, ptr @server, i32 0, i32 196), align 8, !tbaa !66
  call void (i32, ptr, ...) @_serverLog(i32 noundef 0, ptr noundef @.str.16, ptr noundef %15)
  br label %16

16:                                               ; preds = %14, %13
  br label %48

17:                                               ; preds = %0
  call void @llvm.lifetime.start.p0(i64 8, ptr %1) #12
  %18 = call ptr @getAofManifestFileName()
  store ptr %18, ptr %1, align 8, !tbaa !18
  call void @llvm.lifetime.start.p0(i64 8, ptr %2) #12
  %19 = load ptr, ptr getelementptr inbounds nuw (%struct.redisServer, ptr @server, i32 0, i32 196), align 8, !tbaa !66
  %20 = load ptr, ptr %1, align 8, !tbaa !18
  %21 = call ptr @makePath(ptr noundef %19, ptr noundef %20)
  store ptr %21, ptr %2, align 8, !tbaa !18
  %22 = load ptr, ptr %2, align 8, !tbaa !18
  %23 = call i32 @fileExist(ptr noundef %22)
  %24 = icmp ne i32 %23, 0
  br i1 %24, label %36, label %25

25:                                               ; preds = %17
  br label %26

26:                                               ; preds = %25
  %27 = load i32, ptr getelementptr inbounds nuw (%struct.redisServer, ptr @server, i32 0, i32 159), align 8, !tbaa !67
  %28 = icmp slt i32 0, %27
  br i1 %28, label %29, label %30

29:                                               ; preds = %26
  br label %33

30:                                               ; preds = %26
  %31 = load ptr, ptr %1, align 8, !tbaa !18
  call void (i32, ptr, ...) @_serverLog(i32 noundef 0, ptr noundef @.str.17, ptr noundef %31)
  br label %32

32:                                               ; preds = %30
  br label %33

33:                                               ; preds = %32, %29
  %34 = load ptr, ptr %1, align 8, !tbaa !18
  call void @sdsfree(ptr noundef %34)
  %35 = load ptr, ptr %2, align 8, !tbaa !18
  call void @sdsfree(ptr noundef %35)
  store i32 1, ptr %3, align 4
  br label %46

36:                                               ; preds = %17
  call void @llvm.lifetime.start.p0(i64 8, ptr %4) #12
  %37 = load ptr, ptr %2, align 8, !tbaa !18
  %38 = call ptr @aofLoadManifestFromFile(ptr noundef %37)
  store ptr %38, ptr %4, align 8, !tbaa !5
  %39 = load ptr, ptr %4, align 8, !tbaa !5
  %40 = icmp ne ptr %39, null
  br i1 %40, label %41, label %43

41:                                               ; preds = %36
  %42 = load ptr, ptr %4, align 8, !tbaa !5
  call void @aofManifestFreeAndUpdate(ptr noundef %42)
  br label %43

43:                                               ; preds = %41, %36
  %44 = load ptr, ptr %1, align 8, !tbaa !18
  call void @sdsfree(ptr noundef %44)
  %45 = load ptr, ptr %2, align 8, !tbaa !18
  call void @sdsfree(ptr noundef %45)
  call void @llvm.lifetime.end.p0(i64 8, ptr %4) #12
  store i32 0, ptr %3, align 4
  br label %46

46:                                               ; preds = %43, %33
  call void @llvm.lifetime.end.p0(i64 8, ptr %2) #12
  call void @llvm.lifetime.end.p0(i64 8, ptr %1) #12
  %47 = load i32, ptr %3, align 4
  switch i32 %47, label %49 [
    i32 0, label %48
    i32 1, label %48
  ]

48:                                               ; preds = %16, %46, %46
  ret void

49:                                               ; preds = %46
  unreachable
}