; Function Attrs: nounwind uwtable
define dso_local void @aofLoadManifestFromDisk() local_unnamed_addr #0 {
  %1 = tail call noalias dereferenceable_or_null(48) ptr @zcalloc(i64 noundef 48) #19
  %2 = tail call ptr @listCreate() #20
  %3 = getelementptr inbounds nuw i8, ptr %1, i64 8
  store ptr %2, ptr %3, align 8, !tbaa !24
  %4 = tail call ptr @listCreate() #20
  %5 = getelementptr inbounds nuw i8, ptr %1, i64 16
  store ptr %4, ptr %5, align 8, !tbaa !27
  %6 = getelementptr inbounds nuw i8, ptr %2, i64 24
  store ptr @aofListFree, ptr %6, align 8, !tbaa !28
  %7 = getelementptr inbounds nuw i8, ptr %2, i64 16
  store ptr @aofListDup, ptr %7, align 8, !tbaa !31
  %8 = getelementptr inbounds nuw i8, ptr %4, i64 24
  store ptr @aofListFree, ptr %8, align 8, !tbaa !28
  %9 = getelementptr inbounds nuw i8, ptr %4, i64 16
  store ptr @aofListDup, ptr %9, align 8, !tbaa !31
  store ptr %1, ptr getelementptr inbounds nuw (i8, ptr @server, i64 6704), align 8, !tbaa !63
  %10 = load ptr, ptr getelementptr inbounds nuw (i8, ptr @server, i64 6536), align 8, !tbaa !64
  %11 = tail call i32 @dirExists(ptr noundef %10) #20
  %.not = icmp eq i32 %11, 0
  br i1 %.not, label %12, label %17

12:                                               ; preds = %0
  %13 = load i32, ptr getelementptr inbounds nuw (i8, ptr @server, i64 6288), align 8, !tbaa !65
  %14 = icmp sgt i32 %13, 0
  br i1 %14, label %47, label %15

15:                                               ; preds = %12
  %16 = load ptr, ptr getelementptr inbounds nuw (i8, ptr @server, i64 6536), align 8, !tbaa !64
  tail call void (i32, ptr, ...) @_serverLog(i32 noundef 0, ptr noundef nonnull @.str.16, ptr noundef %16) #20
  br label %47

17:                                               ; preds = %0
  %18 = tail call ptr @sdsempty() #20
  %19 = load ptr, ptr getelementptr inbounds nuw (i8, ptr @server, i64 6528), align 8, !tbaa !33
  %20 = tail call ptr (ptr, ptr, ...) @sdscatprintf(ptr noundef %18, ptr noundef nonnull @.str.11, ptr noundef %19, ptr noundef nonnull @.str.12) #20
  %21 = load ptr, ptr getelementptr inbounds nuw (i8, ptr @server, i64 6536), align 8, !tbaa !64
  %22 = tail call ptr @makePath(ptr noundef %21, ptr noundef %20) #20
  %23 = tail call i32 @fileExist(ptr noundef %22) #20
  %.not10 = icmp eq i32 %23, 0
  br i1 %.not10, label %24, label %29

24:                                               ; preds = %17
  %25 = load i32, ptr getelementptr inbounds nuw (i8, ptr @server, i64 6288), align 8, !tbaa !65
  %26 = icmp sgt i32 %25, 0
  br i1 %26, label %28, label %27

27:                                               ; preds = %24
  tail call void (i32, ptr, ...) @_serverLog(i32 noundef 0, ptr noundef nonnull @.str.17, ptr noundef %20) #20
  br label %28

28:                                               ; preds = %24, %27
  tail call void @sdsfree(ptr noundef %20) #20
  tail call void @sdsfree(ptr noundef %22) #20
  br label %47

29:                                               ; preds = %17
  %30 = tail call ptr @aofLoadManifestFromFile(ptr noundef %22)
  %.not11 = icmp eq ptr %30, null
  br i1 %.not11, label %46, label %31

31:                                               ; preds = %29
  %32 = load ptr, ptr getelementptr inbounds nuw (i8, ptr @server, i64 6704), align 8, !tbaa !63
  %.not3.i = icmp eq ptr %32, null
  br i1 %.not3.i, label %aofManifestFreeAndUpdate.exit, label %33

33:                                               ; preds = %31
  %34 = load ptr, ptr %32, align 8, !tbaa !32
  %.not.i.i = icmp eq ptr %34, null
  br i1 %.not.i.i, label %38, label %35

35:                                               ; preds = %33
  %36 = load ptr, ptr %34, align 8, !tbaa !6
  %.not5.i.i.i = icmp eq ptr %36, null
  br i1 %.not5.i.i.i, label %aofInfoFree.exit.i.i, label %37

37:                                               ; preds = %35
  tail call void @sdsfree(ptr noundef nonnull %36) #20
  br label %aofInfoFree.exit.i.i

aofInfoFree.exit.i.i:                             ; preds = %37, %35
  tail call void @zfree(ptr noundef nonnull %34) #20
  br label %38

38:                                               ; preds = %aofInfoFree.exit.i.i, %33
  %39 = getelementptr inbounds nuw i8, ptr %32, i64 8
  %40 = load ptr, ptr %39, align 8, !tbaa !24
  %.not9.i.i = icmp eq ptr %40, null
  br i1 %.not9.i.i, label %42, label %41

41:                                               ; preds = %38
  tail call void @listRelease(ptr noundef nonnull %40) #20
  br label %42

42:                                               ; preds = %41, %38
  %43 = getelementptr inbounds nuw i8, ptr %32, i64 16
  %44 = load ptr, ptr %43, align 8, !tbaa !27
  %.not10.i.i = icmp eq ptr %44, null
  br i1 %.not10.i.i, label %aofManifestFree.exit.i, label %45

45:                                               ; preds = %42
  tail call void @listRelease(ptr noundef nonnull %44) #20
  br label %aofManifestFree.exit.i

aofManifestFree.exit.i:                           ; preds = %45, %42
  tail call void @zfree(ptr noundef nonnull %32) #20
  br label %aofManifestFreeAndUpdate.exit

aofManifestFreeAndUpdate.exit:                    ; preds = %31, %aofManifestFree.exit.i
  store ptr %30, ptr getelementptr inbounds nuw (i8, ptr @server, i64 6704), align 8, !tbaa !63
  br label %46

46:                                               ; preds = %aofManifestFreeAndUpdate.exit, %29
  tail call void @sdsfree(ptr noundef %20) #20
  tail call void @sdsfree(ptr noundef %22) #20
  br label %47

47:                                               ; preds = %28, %46, %15, %12
  ret void
}